target datalayout = "e-m:e-p270:32:32-p271:32:32-p272:64:64-i64:64-i128:128-f80:128-n8:16:32:64-S128"
target triple = "x86_64-unknown-linux-gnu"

%"class.icu_75::UMutex" = type { [40 x i8], %"struct.std::atomic.1", ptr }
%"struct.std::atomic.1" = type { %"struct.std::__atomic_base.2" }
%"struct.std::__atomic_base.2" = type { ptr }
%"class.icu_75::Mutex" = type { ptr }

@_ZN6icu_75L17gDefaultZoneMutexE = internal global %"class.icu_75::UMutex" zeroinitializer, align 8
@_ZL12DEFAULT_ZONE = internal global ptr null, align 8

; Function Attrs: mustprogress nounwind uwtable
define linkonce_odr void @_ZN6icu_755MutexD2Ev(ptr noundef nonnull align 8 dereferenceable(8) %this) unnamed_addr #2 comdat align 2 personality ptr @__gxx_personality_v0 {
entry:
  %this.addr = alloca ptr, align 8
  store ptr %this, ptr %this.addr, align 8
  %this1 = load ptr, ptr %this.addr, align 8
  %fMutex = getelementptr inbounds %"class.icu_75::Mutex", ptr %this1, i32 0, i32 0
  %0 = load ptr, ptr %fMutex, align 8
  invoke void @umtx_unlock_75(ptr noundef %0)
          to label %invoke.cont unwind label %terminate.lpad

invoke.cont:                                      ; preds = %entry
  ret void

terminate.lpad:                                   ; preds = %entry
  %1 = landingpad { ptr, i32 }
          catch ptr null
  %2 = extractvalue { ptr, i32 } %1, 0
  call void @__clang_call_terminate(ptr %2) #12
  unreachable
}

; Function Attrs: mustprogress uwtable
define linkonce_odr void @_ZN6icu_755MutexC2EPNS_6UMutexE(ptr noundef nonnull align 8 dereferenceable(8) %this, ptr noundef %mutex) unnamed_addr #0 comdat align 2 {
entry:
  %this.addr = alloca ptr, align 8
  %mutex.addr = alloca ptr, align 8
  store ptr %this, ptr %this.addr, align 8
  store ptr %mutex, ptr %mutex.addr, align 8
  %this1 = load ptr, ptr %this.addr, align 8
  %fMutex = getelementptr inbounds %"class.icu_75::Mutex", ptr %this1, i32 0, i32 0
  %0 = load ptr, ptr %mutex.addr, align 8
  store ptr %0, ptr %fMutex, align 8
  %fMutex2 = getelementptr inbounds %"class.icu_75::Mutex", ptr %this1, i32 0, i32 0
  %1 = load ptr, ptr %fMutex2, align 8
  call void @umtx_lock_75(ptr noundef %1)
  ret void
}

; Function Attrs: mustprogress uwtable
define void @_ZN6icu_758TimeZone12adoptDefaultEPS0_(ptr noundef %zone) #0 align 2 {
entry:
  %zone.addr = alloca ptr, align 8
  %lock = alloca %"class.icu_75::Mutex", align 8
  %old = alloca ptr, align 8
  store ptr %zone, ptr %zone.addr, align 8
  %0 = load ptr, ptr %zone.addr, align 8
  %cmp = icmp ne ptr %0, null
  br i1 %cmp, label %if.then, label %if.end

if.then:                                          ; preds = %entry
  call void @_ZN6icu_755MutexC2EPNS_6UMutexE(ptr noundef nonnull align 8 dereferenceable(8) %lock, ptr noundef @_ZN6icu_75L17gDefaultZoneMutexE)
  %1 = load ptr, ptr @_ZL12DEFAULT_ZONE, align 8
  store ptr %1, ptr %old, align 8
  %2 = load ptr, ptr %zone.addr, align 8
  store ptr %2, ptr @_ZL12DEFAULT_ZONE, align 8
  %3 = load ptr, ptr %old, align 8
  %isnull = icmp eq ptr %3, null
  br i1 %isnull, label %delete.end, label %delete.notnull

delete.notnull:                                   ; preds = %if.then
  %vtable = load ptr, ptr %3, align 8
  %vfn = getelementptr inbounds ptr, ptr %vtable, i64 1
  %4 = load ptr, ptr %vfn, align 8
  call void %4(ptr noundef nonnull align 8 dereferenceable(72) %3) #11
  br label %delete.end

delete.end:                                       ; preds = %delete.notnull, %if.then
  call void @_ZN6icu_755MutexD2Ev(ptr noundef nonnull align 8 dereferenceable(8) %lock) #11
  call void @ucln_i18n_registerCleanup_75(i32 noundef 19, ptr noundef @_ZL16timeZone_cleanupv)
  br label %if.end

if.end:                                           ; preds = %delete.end, %entry
  ret void
}

; Function Attrs: mustprogress uwtable
define void @_ZN6icu_758TimeZone10setDefaultERKS0_(ptr noundef nonnull align 8 dereferenceable(72) %zone) #0 align 2 {
entry:
  %zone.addr = alloca ptr, align 8
  store ptr %zone, ptr %zone.addr, align 8
  %0 = load ptr, ptr %zone.addr, align 8
  %vtable = load ptr, ptr %0, align 8
  %vfn = getelementptr inbounds ptr, ptr %vtable, i64 12
  %1 = load ptr, ptr %vfn, align 8
  %call = call noundef ptr %1(ptr noundef nonnull align 8 dereferenceable(72) %0)
  call void @_ZN6icu_758TimeZone12adoptDefaultEPS0_(ptr noundef %call)
  ret void
}