; Function Attrs: mustprogress uwtable
define void @_ZN6icu_758TimeZone10setDefaultERKS0_(ptr noundef nonnull align 8 dereferenceable(72) %zone) local_unnamed_addr #0 align 2 personality ptr @__gxx_personality_v0 {
entry:
  %vtable = load ptr, ptr %zone, align 8
  %vfn = getelementptr inbounds i8, ptr %vtable, i64 96
  %0 = load ptr, ptr %vfn, align 8
  %call = tail call noundef ptr %0(ptr noundef nonnull align 8 dereferenceable(72) %zone)
  %cmp.not.i = icmp eq ptr %call, null
  br i1 %cmp.not.i, label %_ZN6icu_758TimeZone12adoptDefaultEPS0_.exit, label %if.then.i

if.then.i:                                        ; preds = %entry
  tail call void @umtx_lock_75(ptr noundef nonnull @_ZN6icu_75L17gDefaultZoneMutexE)
  %1 = load ptr, ptr @_ZL12DEFAULT_ZONE, align 8
  store ptr %call, ptr @_ZL12DEFAULT_ZONE, align 8
  %isnull.i = icmp eq ptr %1, null
  br i1 %isnull.i, label %delete.end.i, label %delete.notnull.i

delete.notnull.i:                                 ; preds = %if.then.i
  %vtable.i = load ptr, ptr %1, align 8
  %vfn.i = getelementptr inbounds i8, ptr %vtable.i, i64 8
  %2 = load ptr, ptr %vfn.i, align 8
  tail call void %2(ptr noundef nonnull align 8 dereferenceable(72) %1) #18
  br label %delete.end.i

delete.end.i:                                     ; preds = %delete.notnull.i, %if.then.i
  invoke void @umtx_unlock_75(ptr noundef nonnull @_ZN6icu_75L17gDefaultZoneMutexE)
          to label %_ZN6icu_755MutexD2Ev.exit.i unwind label %terminate.lpad.i.i

terminate.lpad.i.i:                               ; preds = %delete.end.i
  %3 = landingpad { ptr, i32 }
          catch ptr null
  %4 = extractvalue { ptr, i32 } %3, 0
  tail call void @__clang_call_terminate(ptr %4) #19
  unreachable

_ZN6icu_755MutexD2Ev.exit.i:                      ; preds = %delete.end.i
  tail call void @ucln_i18n_registerCleanup_75(i32 noundef 19, ptr noundef nonnull @_ZL16timeZone_cleanupv)
  br label %_ZN6icu_758TimeZone12adoptDefaultEPS0_.exit

_ZN6icu_758TimeZone12adoptDefaultEPS0_.exit:      ; preds = %entry, %_ZN6icu_755MutexD2Ev.exit.i
  ret void
}